(lp1
cnumpy.core.multiarray
scalar
p2
(cnumpy
dtype
p3
(S'f4'
I0
I1
tRp4
(I3
S'<'
NNNI-1
I-1
I0
tbS'o0\xc5>'
tRp5
ag2
(g4
S'\xf9\xac\x9b>'
tRp6
ag2
(g4
S'\x0e\xa6H>'
tRp7
ag2
(g4
S'\xf9\xac\x9b>'
tRp8
ag2
(g4
S'o0\xc5>'
tRp9
ag2
(g4
S'\xf9\xac\x9b>'
tRp10
ag2
(g4
S'\x8b|V>'
tRp11
ag2
(g4
S'\xe5\xb3.?'
tRp12
ag2
(g4
S'\x92\xcf\xba>'
tRp13
ag2
(g4
S'F>+?'
tRp14
ag2
(g4
S'v\x83\xa9>'
tRp15
ag2
(g4
S'\xeb\x06\x13?'
tRp16
ag2
(g4
S'\x1cL\x11?'
tRp17
ag2
(g4
S'T\xe43?'
tRp18
ag2
(g4
S'\x84)\xf2>'
tRp19
ag2
(g4
S'a\x8a\xfc>'
tRp20
ag2
(g4
S'\xd0\xba\x01?'
tRp21
ag2
(g4
S'L\x91\x0f?'
tRp22
ag2
(g4
S'\xf9\xac\x1b?'
tRp23
ag2
(g4
S'\xec\x06\x13?'
tRp24
ag2
(g4
S'o0\x05?'
tRp25
ag2
(g4
S'}\xd6\r?'
tRp26
ag2
(g4
S'[7\x18?'
tRp27
ag2
(g4
S'*\xf2\x19?'
tRp28
ag2
(g4
S'\xa0u\x03?'
tRp29
ag2
(g4
S'?\xeb\x06?'
tRp30
ag2
(g4
S'\x84)\xf2>'
tRp31
ag2
(g4
S'Z7\x18?'
tRp32
ag2
(g4
S'\xeb\x06\x13?'
tRp33
ag2
(g4
S'L\x91\x0f?'
tRp34
ag2
(g4
S'\xa0u\x03?'
tRp35
ag2
(g4
S'\x84)\xf2>'
tRp36
ag2
(g4
S'Z7\x18?'
tRp37
ag2
(g4
S'}\xd6\r?'
tRp38
ag2
(g4
S'F>\xeb>'
tRp39
ag2
(g4
S'\x83)\xf2>'
tRp40
ag2
(g4
S'b\x8a\xfc>'
tRp41
ag2
(g4
S'?\xeb\x06?'
tRp42
ag2
(g4
S'\x8b|\x16?'
tRp43
ag2
(g4
S'o0\x05?'
tRp44
ag2
(g4
S'|\xd6\r?'
tRp45
ag2
(g4
S'M\x91\x0f?'
tRp46
ag2
(g4
S'\xd0\xba\x01?'
tRp47
ag2
(g4
S'\x0f\xa6\x08?'
tRp48
ag2
(g4
S'\x9fu\x03?'
tRp49
ag2
(g4
S'$\x9f\xf5>'
tRp50
ag2
(g4
S'\xec\x06\x13?'
tRp51
ag2
(g4
S'\xd0\xba\x01?'
tRp52
ag2
(g4
S'\xde`\n?'
tRp53
ag2
(g4
S'\xf8\xac\x1b?'
tRp54
ag2
(g4
S'Z7\x18?'
tRp55
ag2
(g4
S'\x07S$?'
tRp56
ag2
(g4
S'\xc2\x14\xf9>'
tRp57
ag2
(g4
S'\x00\x00\x00?'
tRp58
ag2
(g4
S'\x9fu\x03?'
tRp59
ag2
(g4
S'\x84)\xf2>'
tRp60
ag2
(g4
S'\x1cL\x11?'
tRp61
ag2
(g4
S'\xad\x1b\x0c?'
tRp62
ag2
(g4
S'o0\x05?'
tRp63
ag2
(g4
S'\x01\x00\x00?'
tRp64
ag2
(g4
S'v\x83)?'
tRp65
ag2
(g4
S'\xf9\xac\x1b?'
tRp66
ag2
(g4
S'8\x98"?'
tRp67
ag2
(g4
S"\xa6\xc8'?"
tRp68
ag2
(g4
S'h\xdd ?'
tRp69
ag2
(g4
S"\xa7\xc8'?"
tRp70
ag2
(g4
S'\xd7\r&?'
tRp71
ag2
(g4
S'\xc9g\x1d?'
tRp72
ag2
(g4
S'v\x83)?'
tRp73
ag2
(g4
S'v\x83)?'
tRp74
ag2
(g4
S'\x16\xf9,?'
tRp75
ag2
(g4
S'\x16\xf9,?'
tRp76
ag2
(g4
S'\x08S$?'
tRp77
ag2
(g4
S'\x08S$?'
tRp78
ag2
(g4
S'\x08S$?'
tRp79
ag2
(g4
S'v\x83)?'
tRp80
ag2
(g4
S"\xa7\xc8'?"
tRp81
ag2
(g4
S'\x84)2?'
tRp82
ag2
(g4
S'$\x9f5?'
tRp83
ag2
(g4
S"\xa6\xc8'?"
tRp84
ag2
(g4
S'v\x83)?'
tRp85
ag2
(g4
S'\x84)2?'
tRp86
ag2
(g4
S'\x8b|\x16?'
tRp87
ag2
(g4
S"\xa7\xc8'?"
tRp88
ag2
(g4
S"\xa8\xc8'?"
tRp89
ag2
(g4
S"\xa7\xc8'?"
tRp90
ag2
(g4
S'b\x8a\xfc>'
tRp91
ag2
(g4
S'\x9fu\x03?'
tRp92
ag2
(g4
S'\xa6\xc8\xe7>'
tRp93
ag2
(g4
S'F>\xeb>'
tRp94
ag2
(g4
S'\x07S$?'
tRp95
ag2
(g4
S"\xa7\xc8'?"
tRp96
ag2
(g4
S'M\x91\x0f?'
tRp97
ag2
(g4
S'\x1cL\x11?'
tRp98
ag2
(g4
S'\x98"\x1f?'
tRp99
ag2
(g4
S'7\x98"?'
tRp100
ag2
(g4
S'\x08S$?'
tRp101
ag2
(g4
S'\x98"\x1f?'
tRp102
ag2
(g4
S'\x15\xf9,?'
tRp103
ag2
(g4
S'\x07S$?'
tRp104
ag2
(g4
S'8\x98"?'
tRp105
ag2
(g4
S'*\xf2\x19?'
tRp106
ag2
(g4
S'h\xdd ?'
tRp107
ag2
(g4
S"\xa7\xc8'?"
tRp108
ag2
(g4
S'7\x98"?'
tRp109
ag2
(g4
S'\xfa\xac\x1b?'
tRp110
ag2
(g4
S'\x07S$?'
tRp111
ag2
(g4
S'h\xdd ?'
tRp112
ag2
(g4
S"\xa7\xc8'?"
tRp113
ag2
(g4
S'\xe5\xb3.?'
tRp114
ag2
(g4
S'8\x98"?'
tRp115
ag2
(g4
S"\xa6\xc8'?"
tRp116
ag2
(g4
S'h\xdd ?'
tRp117
ag2
(g4
S'*\xf2\x19?'
tRp118
ag2
(g4
S'\xd6\r&?'
tRp119
ag2
(g4
S'\x84)2?'
tRp120
ag2
(g4
S'\xb4n0?'
tRp121
ag2
(g4
S'\x84)2?'
tRp122
ag2
(g4
S'\x16\xf9,?'
tRp123
ag2
(g4
S'w\x83)?'
tRp124
ag2
(g4
S'\xe4\xb3.?'
tRp125
ag2
(g4
S"\xa7\xc8'?"
tRp126
ag2
(g4
S'\xe4\xb3.?'
tRp127
ag2
(g4
S'\xe4\xb3.?'
tRp128
ag2
(g4
S'T\xe43?'
tRp129
ag2
(g4
S'\x08S$?'
tRp130
ag2
(g4
S'\xd7\r&?'
tRp131
ag2
(g4
S'\x07S$?'
tRp132
ag2
(g4
S'\x15\xf9,?'
tRp133
ag2
(g4
S'T\xe43?'
tRp134
ag2
(g4
S"\xa6\xc8'?"
tRp135
ag2
(g4
S'E>+?'
tRp136
ag2
(g4
S'\xd7\r&?'
tRp137
ag2
(g4
S"\xa7\xc8'?"
tRp138
ag2
(g4
S'v\x83)?'
tRp139
ag2
(g4
S"\xa7\xc8'?"
tRp140
ag2
(g4
S'\xd6\r&?'
tRp141
ag2
(g4
S"\xa7\xc8'?"
tRp142
ag2
(g4
S'v\x83)?'
tRp143
ag2
(g4
S'\xb4n0?'
tRp144
ag2
(g4
S'\x84)2?'
tRp145
ag2
(g4
S'F>+?'
tRp146
ag2
(g4
S'\x16\xf9,?'
tRp147
ag2
(g4
S'\x84)2?'
tRp148
ag2
(g4
S"\xa6\xc8'?"
tRp149
ag2
(g4
S'\x15\xf9,?'
tRp150
ag2
(g4
S'\xb4n0?'
tRp151
ag2
(g4
S"\xa7\xc8'?"
tRp152
ag2
(g4
S"\xa6\xc8'?"
tRp153
ag2
(g4
S'\x84)2?'
tRp154
ag2
(g4
S'\x84)2?'
tRp155
ag2
(g4
S'\xe6\xb3.?'
tRp156
ag2
(g4
S'w\x83)?'
tRp157
ag2
(g4
S'\xb4n0?'
tRp158
ag2
(g4
S'\x16\xf9,?'
tRp159
ag2
(g4
S"\xa7\xc8'?"
tRp160
ag2
(g4
S'F>+?'
tRp161
ag2
(g4
S'F>+?'
tRp162
ag2
(g4
S'F>+?'
tRp163
ag2
(g4
S'\xe5\xb3.?'
tRp164
ag2
(g4
S'T\xe43?'
tRp165
ag2
(g4
S'\xb4n0?'
tRp166
ag2
(g4
S'\x15\xf9,?'
tRp167
ag2
(g4
S'\x84)2?'
tRp168
ag2
(g4
S'\xe4\xb3.?'
tRp169
ag2
(g4
S'\x15\xf9,?'
tRp170
ag2
(g4
S'\xe6\xb3.?'
tRp171
ag2
(g4
S"\xa6\xc8'?"
tRp172
ag2
(g4
S'\xb4n0?'
tRp173
ag2
(g4
S'\xe5\xb3.?'
tRp174
ag2
(g4
S'T\xe43?'
tRp175
ag2
(g4
S'\x15\xf9,?'
tRp176
ag2
(g4
S'F>+?'
tRp177
ag2
(g4
S'\x14\xf9,?'
tRp178
ag2
(g4
S'F>+?'
tRp179
ag2
(g4
S'\xe5\xb3.?'
tRp180
ag2
(g4
S"\xa7\xc8'?"
tRp181
ag2
(g4
S"\xa6\xc8'?"
tRp182
ag2
(g4
S'\x15\xf9,?'
tRp183
ag2
(g4
S'F>+?'
tRp184
ag2
(g4
S'\x84)2?'
tRp185
ag2
(g4
S'\xe4\xb3.?'
tRp186
ag2
(g4
S'\x16\xf9,?'
tRp187
ag2
(g4
S'\xb4n0?'
tRp188
ag2
(g4
S'\x84)2?'
tRp189
ag2
(g4
S'T\xe43?'
tRp190
ag2
(g4
S'S\xe43?'
tRp191
ag2
(g4
S'"\x9f5?'
tRp192
ag2
(g4
S'\xe5\xb3.?'
tRp193
ag2
(g4
S'v\x83)?'
tRp194
ag2
(g4
S'F>+?'
tRp195
ag2
(g4
S'#\x9f5?'
tRp196
ag2
(g4
S'\xf2Y7?'
tRp197
ag2
(g4
S'\xe5\xb3.?'
tRp198
ag2
(g4
S"\xa7\xc8'?"
tRp199
ag2
(g4
S'\x84)2?'
tRp200
ag2
(g4
S'\x84)2?'
tRp201
ag2
(g4
S'\xf3Y7?'
tRp202
ag2
(g4
S'"\x9f5?'
tRp203
ag2
(g4
S'T\xe43?'
tRp204
ag2
(g4
S'"\x9f5?'
tRp205
ag2
(g4
S'\xb5n0?'
tRp206
ag2
(g4
S'\x84)2?'
tRp207
ag2
(g4
S'a\x8a<?'
tRp208
ag2
(g4
S'\xc2\x149?'
tRp209
ag2
(g4
S'\xc2\x149?'
tRp210
ag2
(g4
S'S\xe43?'
tRp211
ag2
(g4
S'S\xe43?'
tRp212
ag2
(g4
S'\xf2Y7?'
tRp213
ag2
(g4
S'"\x9f5?'
tRp214
ag2
(g4
S'1E>?'
tRp215
ag2
(g4
S'b\x8a<?'
tRp216
ag2
(g4
S'2E>?'
tRp217
ag2
(g4
S'\x92\xcf:?'
tRp218
ag2
(g4
S'\xf3Y7?'
tRp219
ag2
(g4
S'\xf2Y7?'
tRp220
ag2
(g4
S'"\x9f5?'
tRp221
ag2
(g4
S'\xc2\x149?'
tRp222
ag2
(g4
S'\x92\xcf:?'
tRp223
ag2
(g4
S'F>+?'
tRp224
ag2
(g4
S'\xf3Y7?'
tRp225
ag2
(g4
S'$\x9f5?'
tRp226
ag2
(g4
S'\x92\xcf:?'
tRp227
ag2
(g4
S'\xf2Y7?'
tRp228
ag2
(g4
S'\x92\xcf:?'
tRp229
ag2
(g4
S'\xc2\x149?'
tRp230
ag2
(g4
S'a\x8a<?'
tRp231
ag2
(g4
S'0E>?'
tRp232
ag2
(g4
S'\xf4Y7?'
tRp233
ag2
(g4
S'\xf3Y7?'
tRp234
ag2
(g4
S'#\x9f5?'
tRp235
ag2
(g4
S'T\xe43?'
tRp236
ag2
(g4
S'\xb5n0?'
tRp237
ag2
(g4
S'\x85)2?'
tRp238
ag2
(g4
S'\xc2\x149?'
tRp239
ag2
(g4
S'\xb4n0?'
tRp240
ag2
(g4
S'\x84)2?'
tRp241
ag2
(g4
S'\xe4\xb3.?'
tRp242
ag2
(g4
S'\x84)2?'
tRp243
ag2
(g4
S'T\xe43?'
tRp244
ag2
(g4
S'\xb4n0?'
tRp245
ag2
(g4
S'\xb4n0?'
tRp246
ag2
(g4
S'T\xe43?'
tRp247
ag2
(g4
S'\xf2Y7?'
tRp248
ag2
(g4
S'$\x9f5?'
tRp249
ag2
(g4
S'\x92\xcf:?'
tRp250
ag2
(g4
S'T\xe43?'
tRp251
ag2
(g4
S'\x92\xcf:?'
tRp252
ag2
(g4
S'\xc2\x149?'
tRp253
ag2
(g4
S'"\x9f5?'
tRp254
ag2
(g4
S'\x91\xcf:?'
tRp255
ag2
(g4
S'\x01\x00@?'
tRp256
ag2
(g4
S'\xf2Y7?'
tRp257
ag2
(g4
S'"\x9f5?'
tRp258
ag2
(g4
S'\x84)2?'
tRp259
ag2
(g4
S'\x84)2?'
tRp260
ag2
(g4
S'S\xe43?'
tRp261
ag2
(g4
S'\xf2Y7?'
tRp262
ag2
(g4
S'\xf2Y7?'
tRp263
ag2
(g4
S'\xf3Y7?'
tRp264
ag2
(g4
S'"\x9f5?'
tRp265
ag2
(g4
S'\xf2Y7?'
tRp266
ag2
(g4
S'\xf2Y7?'
tRp267
ag2
(g4
S'\xc2\x149?'
tRp268
ag2
(g4
S'\xc2\x149?'
tRp269
ag2
(g4
S'\xc2\x149?'
tRp270
ag2
(g4
S'"\x9f5?'
tRp271
ag2
(g4
S'T\xe43?'
tRp272
ag2
(g4
S'\x84)2?'
tRp273
ag2
(g4
S'\xf2Y7?'
tRp274
ag2
(g4
S'\x92\xcf:?'
tRp275
ag2
(g4
S'\x92\xcf:?'
tRp276
ag2
(g4
S'b\x8a<?'
tRp277
ag2
(g4
S'$\x9f5?'
tRp278
ag2
(g4
S'"\x9f5?'
tRp279
ag2
(g4
S'T\xe43?'
tRp280
ag2
(g4
S'\xf2Y7?'
tRp281
ag2
(g4
S'\xc2\x149?'
tRp282
ag2
(g4
S'\xc2\x149?'
tRp283
ag2
(g4
S'\xf2Y7?'
tRp284
ag2
(g4
S'\xc2\x149?'
tRp285
ag2
(g4
S'#\x9f5?'
tRp286
ag2
(g4
S'\xf3Y7?'
tRp287
ag2
(g4
S'\xf2Y7?'
tRp288
ag2
(g4
S'T\xe43?'
tRp289
ag2
(g4
S'#\x9f5?'
tRp290
ag2
(g4
S'\xf3Y7?'
tRp291
ag2
(g4
S'#\x9f5?'
tRp292
ag2
(g4
S'T\xe43?'
tRp293
ag2
(g4
S'\xf4Y7?'
tRp294
ag2
(g4
S'\xf3Y7?'
tRp295
ag2
(g4
S'#\x9f5?'
tRp296
ag2
(g4
S'#\x9f5?'
tRp297
ag2
(g4
S'#\x9f5?'
tRp298
ag2
(g4
S'"\x9f5?'
tRp299
ag2
(g4
S'#\x9f5?'
tRp300
ag2
(g4
S'$\x9f5?'
tRp301
ag2
(g4
S'#\x9f5?'
tRp302
ag2
(g4
S'\x00\x00@?'
tRp303
ag2
(g4
S'2E>?'
tRp304
a.